target datalayout = "e-m:e-p270:32:32-p271:32:32-p272:64:64-i64:64-i128:128-f80:128-n8:16:32:64-S128"
target triple = "x86_64-pc-linux-gnu"

; Function Attrs: mustprogress uwtable
define dso_local noundef i32 @_ZN24cmCPackExternalGenerator30InstallProjectViaInstallScriptEbRKNSt7__cxx1112basic_stringIcSt11char_traitsIcESaIcEEE(ptr noundef nonnull align 8 dereferenceable(368) %0, i1 noundef zeroext %1, ptr noundef nonnull align 8 dereferenceable(32) %2) unnamed_addr #4 align 2 {
  %4 = alloca i32, align 4
  %5 = alloca ptr, align 8
  %6 = alloca i8, align 1
  %7 = alloca ptr, align 8
  store ptr %0, ptr %5, align 8
  %8 = zext i1 %1 to i8
  store i8 %8, ptr %6, align 1
  store ptr %2, ptr %7, align 8
  %9 = load ptr, ptr %5, align 8
  %10 = call noundef zeroext i1 @_ZNK24cmCPackExternalGenerator14StagingEnabledEv(ptr noundef nonnull align 8 dereferenceable(368) %9)
  br i1 %10, label %11, label %16

11:                                               ; preds = %3
  %12 = load i8, ptr %6, align 1
  %13 = trunc i8 %12 to i1
  %14 = load ptr, ptr %7, align 8
  %15 = call noundef i32 @_ZN16cmCPackGenerator30InstallProjectViaInstallScriptEbRKNSt7__cxx1112basic_stringIcSt11char_traitsIcESaIcEEE(ptr noundef nonnull align 8 dereferenceable(360) %9, i1 noundef zeroext %13, ptr noundef nonnull align 8 dereferenceable(32) %14)
  store i32 %15, ptr %4, align 4
  br label %17

16:                                               ; preds = %3
  store i32 1, ptr %4, align 4
  br label %17

17:                                               ; preds = %16, %11
  %18 = load i32, ptr %4, align 4
  ret i32 %18
}